; Function Attrs: nounwind uwtable
define internal fastcc void @DestroySDLMenu(ptr noundef nonnull %0) unnamed_addr #0 {
  %2 = getelementptr inbounds nuw i8, ptr %0, i64 8
  %3 = load i32, ptr %2, align 8
  %4 = icmp sgt i32 %3, 0
  br i1 %4, label %.lr.ph, label %._crit_edge

.lr.ph:                                           ; preds = %1
  %5 = getelementptr inbounds nuw i8, ptr %0, i64 16
  br label %7

._crit_edge:                                      ; preds = %15, %1
  %6 = load ptr, ptr %0, align 8
  %.not = icmp eq ptr %6, null
  br i1 %.not, label %22, label %20

7:                                                ; preds = %.lr.ph, %15
  %indvars.iv = phi i64 [ 0, %.lr.ph ], [ %indvars.iv.next, %15 ]
  %8 = load ptr, ptr %5, align 8
  %9 = getelementptr inbounds nuw ptr, ptr %8, i64 %indvars.iv
  %10 = load ptr, ptr %9, align 8
  %.not17 = icmp eq ptr %10, null
  br i1 %.not17, label %15, label %11

11:                                               ; preds = %7
  %12 = getelementptr inbounds nuw i8, ptr %10, i64 40
  %13 = load ptr, ptr %12, align 8
  %.not18 = icmp eq ptr %13, null
  br i1 %.not18, label %15, label %14

14:                                               ; preds = %11
  tail call fastcc void @DestroySDLMenu(ptr noundef %13)
  %.pre = load ptr, ptr %5, align 8
  %.phi.trans.insert = getelementptr inbounds nuw ptr, ptr %.pre, i64 %indvars.iv
  %.pre21 = load ptr, ptr %.phi.trans.insert, align 8
  br label %15

15:                                               ; preds = %14, %11, %7
  %16 = phi ptr [ %.pre21, %14 ], [ %10, %11 ], [ null, %7 ]
  tail call void @SDL_free_REAL(ptr noundef %16) #10
  %indvars.iv.next = add nuw nsw i64 %indvars.iv, 1
  %17 = load i32, ptr %2, align 8
  %18 = sext i32 %17 to i64
  %19 = icmp slt i64 %indvars.iv.next, %18
  br i1 %19, label %7, label %._crit_edge, !llvm.loop !6

20:                                               ; preds = %._crit_edge
  %21 = load ptr, ptr @g_object_unref, align 8
  tail call void %21(ptr noundef nonnull %6) #10
  br label %22

22:                                               ; preds = %20, %._crit_edge
  %23 = getelementptr inbounds nuw i8, ptr %0, i64 16
  %24 = load ptr, ptr %23, align 8
  tail call void @SDL_free_REAL(ptr noundef %24) #10
  tail call void @SDL_free_REAL(ptr noundef nonnull %0) #10
  ret void
}